target datalayout = "e-m:e-p270:32:32-p271:32:32-p272:64:64-i64:64-i128:128-f80:128-n8:16:32:64-S128"
target triple = "x86_64-unknown-linux-gnu"

%"class.grpc_core::RefCountedPtr.1" = type { ptr }
%"class.grpc_core::RefCountedPtr.2" = type { ptr }
%"class.grpc_core::RefCount" = type { %"struct.std::atomic.7" }
%"struct.std::atomic.7" = type { %"struct.std::__atomic_base.8" }
%"struct.std::__atomic_base.8" = type { i64 }
%"class.std::basic_string_view" = type { i64, ptr }
%"class.(anonymous namespace)::grpc_alts_channel_security_connector" = type { %class.grpc_channel_security_connector, ptr }
%class.grpc_channel_security_connector = type { %class.grpc_security_connector, %"class.grpc_core::RefCountedPtr.1", %"class.grpc_core::RefCountedPtr.2", %"class.std::unique_ptr.12" }
%class.grpc_security_connector = type { %"class.grpc_core::RefCounted.11", %"class.std::basic_string_view" }
%"class.grpc_core::RefCounted.11" = type { %"class.grpc_core::PolymorphicRefCount", %"class.grpc_core::RefCount" }
%"class.grpc_core::PolymorphicRefCount" = type { ptr }
%"class.std::unique_ptr.12" = type { %"struct.std::__uniq_ptr_data.13" }
%"struct.std::__uniq_ptr_data.13" = type { %"class.std::__uniq_ptr_impl.14" }
%"class.std::__uniq_ptr_impl.14" = type { %"class.std::tuple.15" }
%"class.std::tuple.15" = type { %"struct.std::_Tuple_impl.16" }
%"struct.std::_Tuple_impl.16" = type { %"struct.std::_Head_base.19" }
%"struct.std::_Head_base.19" = type { ptr }

; Function Attrs: mustprogress uwtable
define internal noundef i32 @_ZNK12_GLOBAL__N_136grpc_alts_channel_security_connector3cmpEPK23grpc_security_connector(ptr noundef nonnull align 8 dereferenceable(64) %this, ptr noundef %other_sc) unnamed_addr #4 align 2 {
entry:
  %retval = alloca i32, align 4
  %this.addr = alloca ptr, align 8
  %other_sc.addr = alloca ptr, align 8
  %other = alloca ptr, align 8
  %c = alloca i32, align 4
  store ptr %this, ptr %this.addr, align 8
  store ptr %other_sc, ptr %other_sc.addr, align 8
  %this1 = load ptr, ptr %this.addr, align 8
  %0 = load ptr, ptr %other_sc.addr, align 8
  store ptr %0, ptr %other, align 8
  %1 = load ptr, ptr %other, align 8
  %call = call noundef i32 @_ZNK31grpc_channel_security_connector30channel_security_connector_cmpEPKS_(ptr noundef nonnull align 8 dereferenceable(56) %this1, ptr noundef %1)
  store i32 %call, ptr %c, align 4
  %2 = load i32, ptr %c, align 4
  %cmp = icmp ne i32 %2, 0
  br i1 %cmp, label %if.then, label %if.end

if.then:                                          ; preds = %entry
  %3 = load i32, ptr %c, align 4
  store i32 %3, ptr %retval, align 4
  br label %return

if.end:                                           ; preds = %entry
  %target_name_ = getelementptr inbounds %"class.(anonymous namespace)::grpc_alts_channel_security_connector", ptr %this1, i32 0, i32 1
  %4 = load ptr, ptr %target_name_, align 8
  %5 = load ptr, ptr %other, align 8
  %target_name_2 = getelementptr inbounds %"class.(anonymous namespace)::grpc_alts_channel_security_connector", ptr %5, i32 0, i32 1
  %6 = load ptr, ptr %target_name_2, align 8
  %call3 = call i32 @strcmp(ptr noundef %4, ptr noundef %6) #14
  store i32 %call3, ptr %retval, align 4
  br label %return

return:                                           ; preds = %if.end, %if.then
  %7 = load i32, ptr %retval, align 4
  ret i32 %7
}