; Function Attrs: mustprogress uwtable
define internal noundef i32 @_ZNK12_GLOBAL__N_136grpc_alts_channel_security_connector3cmpEPK23grpc_security_connector(ptr noundef nonnull align 8 dereferenceable(64) %this, ptr noundef %other_sc) unnamed_addr #3 align 2 {
entry:
  %call = tail call noundef i32 @_ZNK31grpc_channel_security_connector30channel_security_connector_cmpEPKS_(ptr noundef nonnull align 8 dereferenceable(56) %this, ptr noundef %other_sc)
  %cmp.not = icmp eq i32 %call, 0
  br i1 %cmp.not, label %if.end, label %return

if.end:                                           ; preds = %entry
  %target_name_ = getelementptr inbounds i8, ptr %this, i64 56
  %0 = load ptr, ptr %target_name_, align 8
  %target_name_2 = getelementptr inbounds i8, ptr %other_sc, i64 56
  %1 = load ptr, ptr %target_name_2, align 8
  %call3 = tail call i32 @strcmp(ptr noundef nonnull dereferenceable(1) %0, ptr noundef nonnull dereferenceable(1) %1) #18
  br label %return

return:                                           ; preds = %entry, %if.end
  %retval.0 = phi i32 [ %call3, %if.end ], [ %call, %entry ]
  ret i32 %retval.0
}